target datalayout = "e-m:e-p270:32:32-p271:32:32-p272:64:64-i64:64-i128:128-f80:128-n8:16:32:64-S128"
target triple = "x86_64-unknown-linux-gnu"

%struct.QIOChannelTLS = type { %struct.QIOChannel, ptr, ptr, i32, i32 }
%struct.QIOChannel = type { %struct.Object, i32, ptr, ptr, ptr, ptr, ptr, i8 }
%struct.Object = type { ptr, ptr, ptr, i32, ptr }

@.str = private unnamed_addr constant [16 x i8] c"qio-channel-tls\00", align 1
@.str.1 = private unnamed_addr constant [103 x i8] c"/home/dtcxzyw/WorkSpace/Projects/compilers/llvm-opt-benchmark/bench/qemu/qemu/include/io/channel-tls.h\00", align 1
@__func__.QIO_CHANNEL_TLS = private unnamed_addr constant [16 x i8] c"QIO_CHANNEL_TLS\00", align 1

; Function Attrs: nounwind sspstrong uwtable
define internal ptr @QIO_CHANNEL_TLS(ptr noundef %obj) #0 {
entry:
  %obj.addr = alloca ptr, align 8
  store ptr %obj, ptr %obj.addr, align 8
  %0 = load ptr, ptr %obj.addr, align 8
  %call = call ptr @object_dynamic_cast_assert(ptr noundef %0, ptr noundef @.str, ptr noundef @.str.1, i32 noundef 30, ptr noundef @__func__.QIO_CHANNEL_TLS)
  ret ptr %call
}

; Function Attrs: nounwind sspstrong uwtable
define internal i32 @qio_channel_tls_close(ptr noundef %ioc, ptr noundef %errp) #0 {
entry:
  %ioc.addr = alloca ptr, align 8
  %errp.addr = alloca ptr, align 8
  %tioc = alloca ptr, align 8
  %_tag_ptr = alloca ptr, align 8
  %_handle_id = alloca i32, align 4
  store ptr %ioc, ptr %ioc.addr, align 8
  store ptr %errp, ptr %errp.addr, align 8
  %0 = load ptr, ptr %ioc.addr, align 8
  %call = call ptr @QIO_CHANNEL_TLS(ptr noundef %0)
  store ptr %call, ptr %tioc, align 8
  %1 = load ptr, ptr %tioc, align 8
  %hs_ioc_tag = getelementptr inbounds %struct.QIOChannelTLS, ptr %1, i32 0, i32 4
  %2 = load i32, ptr %hs_ioc_tag, align 4
  %tobool = icmp ne i32 %2, 0
  br i1 %tobool, label %if.then, label %if.end4

if.then:                                          ; preds = %entry
  br label %do.body

do.body:                                          ; preds = %if.then
  %3 = load ptr, ptr %tioc, align 8
  %hs_ioc_tag1 = getelementptr inbounds %struct.QIOChannelTLS, ptr %3, i32 0, i32 4
  store ptr %hs_ioc_tag1, ptr %_tag_ptr, align 8
  %4 = load ptr, ptr %_tag_ptr, align 8
  %5 = load i32, ptr %4, align 4
  store i32 %5, ptr %_handle_id, align 4
  %6 = load i32, ptr %_handle_id, align 4
  %cmp = icmp ugt i32 %6, 0
  br i1 %cmp, label %if.then2, label %if.end

if.then2:                                         ; preds = %do.body
  %7 = load ptr, ptr %_tag_ptr, align 8
  store i32 0, ptr %7, align 4
  %8 = load i32, ptr %_handle_id, align 4
  %call3 = call i32 @g_source_remove(i32 noundef %8)
  br label %if.end

if.end:                                           ; preds = %if.then2, %do.body
  br label %do.end

do.end:                                           ; preds = %if.end
  br label %if.end4

if.end4:                                          ; preds = %do.end, %entry
  %9 = load ptr, ptr %tioc, align 8
  %master = getelementptr inbounds %struct.QIOChannelTLS, ptr %9, i32 0, i32 1
  %10 = load ptr, ptr %master, align 8
  %11 = load ptr, ptr %errp.addr, align 8
  %call5 = call i32 @qio_channel_close(ptr noundef %10, ptr noundef %11)
  ret i32 %call5
}