; Function Attrs: nounwind sspstrong uwtable
define internal i32 @qio_channel_tls_close(ptr noundef %ioc, ptr noundef %errp) #0 {
entry:
  %call.i = tail call ptr @object_dynamic_cast_assert(ptr noundef %ioc, ptr noundef nonnull @.str, ptr noundef nonnull @.str.1, i32 noundef 30, ptr noundef nonnull @__func__.QIO_CHANNEL_TLS) #8
  %hs_ioc_tag = getelementptr inbounds nuw i8, ptr %call.i, i64 116
  %0 = load i32, ptr %hs_ioc_tag, align 4
  %tobool.not = icmp eq i32 %0, 0
  br i1 %tobool.not, label %if.end4, label %if.then2

if.then2:                                         ; preds = %entry
  store i32 0, ptr %hs_ioc_tag, align 4
  %call3 = tail call i32 @g_source_remove(i32 noundef %0) #8
  br label %if.end4

if.end4:                                          ; preds = %if.then2, %entry
  %master = getelementptr inbounds nuw i8, ptr %call.i, i64 96
  %1 = load ptr, ptr %master, align 8
  %call5 = tail call i32 @qio_channel_close(ptr noundef %1, ptr noundef %errp) #8
  ret i32 %call5
}